target datalayout = "e-m:e-p270:32:32-p271:32:32-p272:64:64-i64:64-i128:128-f80:128-n8:16:32:64-S128"
target triple = "x86_64-pc-linux-gnu"

%struct.AVFormatContext = type { ptr, ptr, ptr, ptr, ptr, i32, i32, ptr, i32, ptr, i32, ptr, ptr, i64, i64, i64, i32, i32, i32, i64, i64, ptr, i32, i32, ptr, i32, i32, i32, i32, ptr, i64, i32, i32, %struct.AVIOInterruptCB, i32, i32, i32, i32, i64, i32, i32, i32, i32, i32, i32, i32, i32, i32, i32, i32, i32, i64, i32, i32, i32, i32, i32, ptr, ptr, ptr, ptr, i32, ptr, ptr, ptr, ptr, i32, ptr, ptr, i64, ptr, ptr, ptr, i64 }
%struct.AVIOInterruptCB = type { ptr, ptr }
%struct.MP3Context = type { ptr, %struct.ID3v2EncContext, i32, i32, i32, ptr, i32, i32, i32, i64, i32, i32, i32, i32, i32, i32, [400 x i64], i32, i32, i32, i32, i32, i32, %struct.PacketList }
%struct.ID3v2EncContext = type { i32, i64, i32 }
%struct.PacketList = type { ptr, ptr }

@.str.12 = private unnamed_addr constant [4 x i8] c"ID3\00", align 1

; Function Attrs: nounwind uwtable
define internal i32 @mp3_write_header(ptr noundef %0) #0 {
  %2 = alloca i32, align 4
  %3 = alloca ptr, align 8
  %4 = alloca ptr, align 8
  %5 = alloca i32, align 4
  %6 = alloca i32, align 4
  store ptr %0, ptr %3, align 8, !tbaa !4
  call void @llvm.lifetime.start.p0(i64 8, ptr %4) #12
  %7 = load ptr, ptr %3, align 8, !tbaa !4
  %8 = getelementptr inbounds nuw %struct.AVFormatContext, ptr %7, i32 0, i32 3
  %9 = load ptr, ptr %8, align 8, !tbaa !9
  store ptr %9, ptr %4, align 8, !tbaa !26
  call void @llvm.lifetime.start.p0(i64 4, ptr %5) #12
  %10 = load ptr, ptr %4, align 8, !tbaa !26
  %11 = getelementptr inbounds nuw %struct.MP3Context, ptr %10, i32 0, i32 2
  %12 = load i32, ptr %11, align 8, !tbaa !28
  %13 = icmp ne i32 %12, 0
  br i1 %13, label %14, label %32

14:                                               ; preds = %1
  %15 = load ptr, ptr %4, align 8, !tbaa !26
  %16 = getelementptr inbounds nuw %struct.MP3Context, ptr %15, i32 0, i32 1
  %17 = load ptr, ptr %3, align 8, !tbaa !4
  %18 = getelementptr inbounds nuw %struct.AVFormatContext, ptr %17, i32 0, i32 4
  %19 = load ptr, ptr %18, align 8, !tbaa !33
  %20 = load ptr, ptr %4, align 8, !tbaa !26
  %21 = getelementptr inbounds nuw %struct.MP3Context, ptr %20, i32 0, i32 2
  %22 = load i32, ptr %21, align 8, !tbaa !28
  call void @ff_id3v2_start(ptr noundef %16, ptr noundef %19, i32 noundef %22, ptr noundef @.str.12)
  %23 = load ptr, ptr %3, align 8, !tbaa !4
  %24 = load ptr, ptr %4, align 8, !tbaa !26
  %25 = getelementptr inbounds nuw %struct.MP3Context, ptr %24, i32 0, i32 1
  %26 = call i32 @ff_id3v2_write_metadata(ptr noundef %23, ptr noundef %25)
  store i32 %26, ptr %5, align 4, !tbaa !34
  %27 = load i32, ptr %5, align 4, !tbaa !34
  %28 = icmp slt i32 %27, 0
  br i1 %28, label %29, label %31

29:                                               ; preds = %14
  %30 = load i32, ptr %5, align 4, !tbaa !34
  store i32 %30, ptr %2, align 4
  store i32 1, ptr %6, align 4
  br label %55

31:                                               ; preds = %14
  br label %32

32:                                               ; preds = %31, %1
  %33 = load ptr, ptr %4, align 8, !tbaa !26
  %34 = getelementptr inbounds nuw %struct.MP3Context, ptr %33, i32 0, i32 22
  %35 = load i32, ptr %34, align 4, !tbaa !35
  %36 = icmp ne i32 %35, 0
  br i1 %36, label %54, label %37

37:                                               ; preds = %32
  %38 = load ptr, ptr %4, align 8, !tbaa !26
  %39 = getelementptr inbounds nuw %struct.MP3Context, ptr %38, i32 0, i32 2
  %40 = load i32, ptr %39, align 8, !tbaa !28
  %41 = icmp ne i32 %40, 0
  br i1 %41, label %42, label %51

42:                                               ; preds = %37
  %43 = load ptr, ptr %4, align 8, !tbaa !26
  %44 = getelementptr inbounds nuw %struct.MP3Context, ptr %43, i32 0, i32 1
  %45 = load ptr, ptr %3, align 8, !tbaa !4
  %46 = getelementptr inbounds nuw %struct.AVFormatContext, ptr %45, i32 0, i32 4
  %47 = load ptr, ptr %46, align 8, !tbaa !33
  %48 = load ptr, ptr %3, align 8, !tbaa !4
  %49 = getelementptr inbounds nuw %struct.AVFormatContext, ptr %48, i32 0, i32 66
  %50 = load i32, ptr %49, align 8, !tbaa !36
  call void @ff_id3v2_finish(ptr noundef %44, ptr noundef %47, i32 noundef %50)
  br label %51

51:                                               ; preds = %42, %37
  %52 = load ptr, ptr %3, align 8, !tbaa !4
  %53 = call i32 @mp3_write_xing(ptr noundef %52)
  br label %54

54:                                               ; preds = %51, %32
  store i32 0, ptr %2, align 4
  store i32 1, ptr %6, align 4
  br label %55

55:                                               ; preds = %54, %29
  call void @llvm.lifetime.end.p0(i64 4, ptr %5) #12
  call void @llvm.lifetime.end.p0(i64 8, ptr %4) #12
  %56 = load i32, ptr %2, align 4
  ret i32 %56
}