; Function Attrs: nounwind uwtable
define internal range(i32 -2147483648, 1) i32 @mp3_write_header(ptr noundef %0) #0 {
  %2 = getelementptr inbounds nuw i8, ptr %0, i64 24
  %3 = load ptr, ptr %2, align 8, !tbaa !4
  %4 = getelementptr inbounds nuw i8, ptr %3, i64 32
  %5 = load i32, ptr %4, align 8, !tbaa !24
  %.not = icmp eq i32 %5, 0
  br i1 %.not, label %12, label %6

6:                                                ; preds = %1
  %7 = getelementptr inbounds nuw i8, ptr %3, i64 8
  %8 = getelementptr inbounds nuw i8, ptr %0, i64 32
  %9 = load ptr, ptr %8, align 8, !tbaa !29
  tail call void @ff_id3v2_start(ptr noundef nonnull %7, ptr noundef %9, i32 noundef %5, ptr noundef nonnull @.str.12) #12
  %10 = tail call i32 @ff_id3v2_write_metadata(ptr noundef nonnull %0, ptr noundef nonnull %7) #12
  %11 = icmp slt i32 %10, 0
  br i1 %11, label %24, label %12

12:                                               ; preds = %6, %1
  %13 = getelementptr inbounds nuw i8, ptr %3, i64 3324
  %14 = load i32, ptr %13, align 4, !tbaa !30
  %.not17 = icmp eq i32 %14, 0
  br i1 %.not17, label %15, label %24

15:                                               ; preds = %12
  %16 = load i32, ptr %4, align 8, !tbaa !24
  %.not18 = icmp eq i32 %16, 0
  br i1 %.not18, label %23, label %17

17:                                               ; preds = %15
  %18 = getelementptr inbounds nuw i8, ptr %3, i64 8
  %19 = getelementptr inbounds nuw i8, ptr %0, i64 32
  %20 = load ptr, ptr %19, align 8, !tbaa !29
  %21 = getelementptr inbounds nuw i8, ptr %0, i64 408
  %22 = load i32, ptr %21, align 8, !tbaa !31
  tail call void @ff_id3v2_finish(ptr noundef nonnull %18, ptr noundef %20, i32 noundef %22) #12
  br label %23

23:                                               ; preds = %17, %15
  tail call fastcc void @mp3_write_xing(ptr noundef nonnull %0)
  br label %24

24:                                               ; preds = %12, %23, %6
  %.0 = phi i32 [ %10, %6 ], [ 0, %23 ], [ 0, %12 ]
  ret i32 %.0
}